; Function Attrs: mustprogress uwtable
define hidden noundef ptr @_Z32pj_projection_specific_setup_eqcP8PJconsts(ptr noundef %0) local_unnamed_addr #0 {
  %2 = tail call noalias dereferenceable_or_null(8) ptr @calloc(i64 noundef 1, i64 noundef 8) #5
  %3 = icmp eq ptr %2, null
  br i1 %3, label %4, label %6

4:                                                ; preds = %1
  %5 = tail call noundef ptr @_Z21pj_default_destructorP8PJconstsi(ptr noundef %0, i32 noundef 4096)
  br label %21

6:                                                ; preds = %1
  %7 = getelementptr inbounds nuw i8, ptr %0, i64 88
  store ptr %2, ptr %7, align 8, !tbaa !3
  %8 = load ptr, ptr %0, align 8, !tbaa !36
  %9 = getelementptr inbounds nuw i8, ptr %0, i64 24
  %10 = load ptr, ptr %9, align 8, !tbaa !37
  %11 = tail call i64 @_Z8pj_paramP6pj_ctxP8ARG_listPKc(ptr noundef %8, ptr noundef %10, ptr noundef nonnull @.str.1)
  %12 = bitcast i64 %11 to double
  %13 = tail call double @cos(double noundef %12) #6, !tbaa !38
  store double %13, ptr %2, align 8, !tbaa !39
  %14 = fcmp ugt double %13, 0.000000e+00
  br i1 %14, label %17, label %15

15:                                               ; preds = %6
  tail call void (ptr, ptr, ...) @_Z14proj_log_errorPK8PJconstsPKcz(ptr noundef nonnull %0, ptr noundef nonnull @.str.2)
  %16 = tail call noundef ptr @_Z21pj_default_destructorP8PJconstsi(ptr noundef nonnull %0, i32 noundef 1027)
  br label %21

17:                                               ; preds = %6
  %18 = getelementptr inbounds nuw i8, ptr %0, i64 112
  store ptr @_ZL13eqc_s_inverse5PJ_XYP8PJconsts, ptr %18, align 8, !tbaa !41
  %19 = getelementptr inbounds nuw i8, ptr %0, i64 104
  store ptr @_ZL13eqc_s_forward5PJ_LPP8PJconsts, ptr %19, align 8, !tbaa !42
  %20 = getelementptr inbounds nuw i8, ptr %0, i64 216
  store double 0.000000e+00, ptr %20, align 8, !tbaa !43
  br label %21

21:                                               ; preds = %17, %15, %4
  %.0 = phi ptr [ %5, %4 ], [ %16, %15 ], [ %0, %17 ]
  ret ptr %.0
}